target datalayout = "e-m:e-p270:32:32-p271:32:32-p272:64:64-i64:64-i128:128-f80:128-n8:16:32:64-S128"
target triple = "x86_64-pc-linux-gnu"

@hf_rdm_pd_dmx_startup_mode_scene_number = internal global i32 0, align 4
@hf_rdm_pd_dmx_startup_mode_loss_of_signal_delay = internal global i32 0, align 4
@hf_rdm_pd_dmx_startup_mode_hold_time = internal global i32 0, align 4
@hf_rdm_pd_dmx_startup_mode_level = internal global i32 0, align 4

; Function Attrs: null_pointer_is_valid sspstrong uwtable
define internal void @rdm_proto_tree_add_numeric_item(ptr noundef %0, i32 noundef %1, ptr noundef %2, ptr noundef %3, i8 noundef zeroext %4) #1 {
  %6 = alloca ptr, align 8
  %7 = alloca i32, align 4
  %8 = alloca ptr, align 8
  %9 = alloca ptr, align 8
  %10 = alloca i8, align 1
  %11 = alloca i32, align 4
  store ptr %0, ptr %6, align 8
  store i32 %1, ptr %7, align 4
  store ptr %2, ptr %8, align 8
  store ptr %3, ptr %9, align 8
  store i8 %4, ptr %10, align 1
  call void @llvm.lifetime.start.p0(i64 4, ptr %11) #4
  %12 = load ptr, ptr %9, align 8
  %13 = load i32, ptr %12, align 4
  store i32 %13, ptr %11, align 4
  %14 = load ptr, ptr %6, align 8
  %15 = load i32, ptr %7, align 4
  %16 = load ptr, ptr %8, align 8
  %17 = load i32, ptr %11, align 4
  %18 = load i8, ptr %10, align 1
  %19 = zext i8 %18 to i32
  %20 = call ptr @proto_tree_add_item(ptr noundef %14, i32 noundef %15, ptr noundef %16, i32 noundef %17, i32 noundef %19, i32 noundef 0)
  %21 = load i8, ptr %10, align 1
  %22 = zext i8 %21 to i32
  %23 = load ptr, ptr %9, align 8
  %24 = load i32, ptr %23, align 4
  %25 = add i32 %24, %22
  store i32 %25, ptr %23, align 4
  call void @llvm.lifetime.end.p0(i64 4, ptr %11) #4
  ret void
}

; Function Attrs: null_pointer_is_valid sspstrong uwtable
define internal i32 @dissect_rdm_pd_dmx_startup_mode(ptr noundef %0, i32 noundef %1, ptr noundef %2, i8 noundef zeroext %3) #1 {
  %5 = alloca ptr, align 8
  %6 = alloca i32, align 4
  %7 = alloca ptr, align 8
  %8 = alloca i8, align 1
  store ptr %0, ptr %5, align 8
  store i32 %1, ptr %6, align 4
  store ptr %2, ptr %7, align 8
  store i8 %3, ptr %8, align 1
  %9 = load i8, ptr %8, align 1
  %10 = zext i8 %9 to i32
  switch i32 %10, label %24 [
    i32 33, label %11
    i32 48, label %11
  ]

11:                                               ; preds = %4, %4
  %12 = load ptr, ptr %7, align 8
  %13 = load i32, ptr @hf_rdm_pd_dmx_startup_mode_scene_number, align 4
  %14 = load ptr, ptr %5, align 8
  call void @rdm_proto_tree_add_numeric_item(ptr noundef %12, i32 noundef %13, ptr noundef %14, ptr noundef %6, i8 noundef zeroext 2)
  %15 = load ptr, ptr %7, align 8
  %16 = load i32, ptr @hf_rdm_pd_dmx_startup_mode_loss_of_signal_delay, align 4
  %17 = load ptr, ptr %5, align 8
  call void @rdm_proto_tree_add_numeric_item(ptr noundef %15, i32 noundef %16, ptr noundef %17, ptr noundef %6, i8 noundef zeroext 2)
  %18 = load ptr, ptr %7, align 8
  %19 = load i32, ptr @hf_rdm_pd_dmx_startup_mode_hold_time, align 4
  %20 = load ptr, ptr %5, align 8
  call void @rdm_proto_tree_add_numeric_item(ptr noundef %18, i32 noundef %19, ptr noundef %20, ptr noundef %6, i8 noundef zeroext 2)
  %21 = load ptr, ptr %7, align 8
  %22 = load i32, ptr @hf_rdm_pd_dmx_startup_mode_level, align 4
  %23 = load ptr, ptr %5, align 8
  call void @rdm_proto_tree_add_numeric_item(ptr noundef %21, i32 noundef %22, ptr noundef %23, ptr noundef %6, i8 noundef zeroext 1)
  br label %24

24:                                               ; preds = %4, %11
  %25 = load i32, ptr %6, align 4
  ret i32 %25
}