; Function Attrs: null_pointer_is_valid sspstrong uwtable
define internal fastcc range(i32 23, 31) i32 @dissect_rdm_pd_dmx_startup_mode(ptr noundef %0, ptr noundef %1, i8 noundef zeroext %2) unnamed_addr #1 {
  switch i8 %2, label %13 [
    i8 33, label %4
    i8 48, label %4
  ]

4:                                                ; preds = %3, %3
  %5 = load i32, ptr @hf_rdm_pd_dmx_startup_mode_scene_number, align 4
  %6 = tail call ptr @proto_tree_add_item(ptr noundef %1, i32 noundef %5, ptr noundef %0, i32 noundef 23, i32 noundef 2, i32 noundef 0)
  %7 = load i32, ptr @hf_rdm_pd_dmx_startup_mode_loss_of_signal_delay, align 4
  %8 = tail call ptr @proto_tree_add_item(ptr noundef %1, i32 noundef %7, ptr noundef %0, i32 noundef 25, i32 noundef 2, i32 noundef 0)
  %9 = load i32, ptr @hf_rdm_pd_dmx_startup_mode_hold_time, align 4
  %10 = tail call ptr @proto_tree_add_item(ptr noundef %1, i32 noundef %9, ptr noundef %0, i32 noundef 27, i32 noundef 2, i32 noundef 0)
  %11 = load i32, ptr @hf_rdm_pd_dmx_startup_mode_level, align 4
  %12 = tail call ptr @proto_tree_add_item(ptr noundef %1, i32 noundef %11, ptr noundef %0, i32 noundef 29, i32 noundef 1, i32 noundef 0)
  br label %13

13:                                               ; preds = %4, %3
  %.0 = phi i32 [ 23, %3 ], [ 30, %4 ]
  ret i32 %.0
}